target datalayout = "e-m:e-p270:32:32-p271:32:32-p272:64:64-i64:64-i128:128-f80:128-n8:16:32:64-S128"
target triple = "x86_64-pc-linux-gnu"

%union.ufmt_args = type { i64 }
%struct.u_printf_spec_info = type { i32, i32, i16, i16, i16, i8, i8, i8, i8, i8, i8, i8, i8, i8 }
%struct.u_printf_stream_handler = type { ptr, ptr }

; Function Attrs: inlinehint mustprogress nounwind uwtable
define internal noundef signext i8 @_ZL9U_FAILURE10UErrorCode(i32 noundef %0) #2 {
  %2 = alloca i32, align 4
  store i32 %0, ptr %2, align 4, !tbaa !23
  %3 = load i32, ptr %2, align 4, !tbaa !23
  %4 = icmp sgt i32 %3, 0
  %5 = zext i1 %4 to i8
  ret i8 %5
}

; Function Attrs: mustprogress uwtable
define internal noundef i32 @_ZL25u_printf_uinteger_handlerPK23u_printf_stream_handlerPvP13ULocaleBundlePK18u_printf_spec_infoPK9ufmt_args(ptr noundef %0, ptr noundef %1, ptr noundef %2, ptr noundef %3, ptr noundef %4) #0 {
  %6 = alloca i32, align 4
  %7 = alloca ptr, align 8
  %8 = alloca ptr, align 8
  %9 = alloca ptr, align 8
  %10 = alloca ptr, align 8
  %11 = alloca ptr, align 8
  %12 = alloca i64, align 8
  %13 = alloca ptr, align 8
  %14 = alloca [1024 x i16], align 16
  %15 = alloca i32, align 4
  %16 = alloca i32, align 4
  %17 = alloca i32, align 4
  %18 = alloca i32, align 4
  store ptr %0, ptr %7, align 8, !tbaa !3
  store ptr %1, ptr %8, align 8, !tbaa !10
  store ptr %2, ptr %9, align 8, !tbaa !13
  store ptr %3, ptr %10, align 8, !tbaa !19
  store ptr %4, ptr %11, align 8, !tbaa !21
  call void @llvm.lifetime.start.p0(i64 8, ptr %12) #9
  %19 = load ptr, ptr %11, align 8, !tbaa !21
  %20 = getelementptr inbounds %union.ufmt_args, ptr %19, i64 0
  %21 = load i64, ptr %20, align 8, !tbaa !69
  store i64 %21, ptr %12, align 8, !tbaa !70
  call void @llvm.lifetime.start.p0(i64 8, ptr %13) #9
  call void @llvm.lifetime.start.p0(i64 2048, ptr %14) #9
  call void @llvm.lifetime.start.p0(i64 4, ptr %15) #9
  store i32 -1, ptr %15, align 4, !tbaa !36
  call void @llvm.lifetime.start.p0(i64 4, ptr %16) #9
  call void @llvm.lifetime.start.p0(i64 4, ptr %17) #9
  store i32 0, ptr %17, align 4, !tbaa !23
  %22 = load ptr, ptr %10, align 8, !tbaa !19
  %23 = getelementptr inbounds nuw %struct.u_printf_spec_info, ptr %22, i32 0, i32 11
  %24 = load i8, ptr %23, align 4, !tbaa !56
  %25 = icmp ne i8 %24, 0
  br i1 %25, label %26, label %29

26:                                               ; preds = %5
  %27 = load i64, ptr %12, align 8, !tbaa !70
  %28 = and i64 %27, 65535
  store i64 %28, ptr %12, align 8, !tbaa !70
  br label %38

29:                                               ; preds = %5
  %30 = load ptr, ptr %10, align 8, !tbaa !19
  %31 = getelementptr inbounds nuw %struct.u_printf_spec_info, ptr %30, i32 0, i32 13
  %32 = load i8, ptr %31, align 2, !tbaa !57
  %33 = icmp ne i8 %32, 0
  br i1 %33, label %37, label %34

34:                                               ; preds = %29
  %35 = load i64, ptr %12, align 8, !tbaa !70
  %36 = and i64 %35, 4294967295
  store i64 %36, ptr %12, align 8, !tbaa !70
  br label %37

37:                                               ; preds = %34, %29
  br label %38

38:                                               ; preds = %37, %26
  %39 = load ptr, ptr %9, align 8, !tbaa !13
  %40 = call ptr @u_locbund_getNumberFormat_77(ptr noundef %39, i32 noundef 1)
  store ptr %40, ptr %13, align 8, !tbaa !86
  %41 = load ptr, ptr %13, align 8, !tbaa !86
  %42 = icmp eq ptr %41, null
  br i1 %42, label %43, label %44

43:                                               ; preds = %38
  store i32 0, ptr %6, align 4
  store i32 1, ptr %18, align 4
  br label %80

44:                                               ; preds = %38
  %45 = load ptr, ptr %10, align 8, !tbaa !19
  %46 = getelementptr inbounds nuw %struct.u_printf_spec_info, ptr %45, i32 0, i32 0
  %47 = load i32, ptr %46, align 4, !tbaa !42
  %48 = icmp ne i32 %47, -1
  br i1 %48, label %49, label %56

49:                                               ; preds = %44
  %50 = load ptr, ptr %13, align 8, !tbaa !86
  %51 = call i32 @unum_getAttribute_77(ptr noundef %50, i32 noundef 4)
  store i32 %51, ptr %15, align 4, !tbaa !36
  %52 = load ptr, ptr %13, align 8, !tbaa !86
  %53 = load ptr, ptr %10, align 8, !tbaa !19
  %54 = getelementptr inbounds nuw %struct.u_printf_spec_info, ptr %53, i32 0, i32 0
  %55 = load i32, ptr %54, align 4, !tbaa !42
  call void @unum_setAttribute_77(ptr noundef %52, i32 noundef 4, i32 noundef %55)
  br label %56

56:                                               ; preds = %49, %44
  %57 = load ptr, ptr %13, align 8, !tbaa !86
  %58 = load i64, ptr %12, align 8, !tbaa !70
  %59 = getelementptr inbounds [1024 x i16], ptr %14, i64 0, i64 0
  %60 = call i32 @unum_formatInt64_77(ptr noundef %57, i64 noundef %58, ptr noundef %59, i32 noundef 1024, ptr noundef null, ptr noundef %17)
  store i32 %60, ptr %16, align 4, !tbaa !36
  %61 = load i32, ptr %17, align 4, !tbaa !23
  %62 = call noundef signext i8 @_ZL9U_FAILURE10UErrorCode(i32 noundef %61)
  %63 = icmp ne i8 %62, 0
  br i1 %63, label %64, label %65

64:                                               ; preds = %56
  store i32 0, ptr %16, align 4, !tbaa !36
  br label %65

65:                                               ; preds = %64, %56
  %66 = load i32, ptr %15, align 4, !tbaa !36
  %67 = icmp ne i32 %66, -1
  br i1 %67, label %68, label %71

68:                                               ; preds = %65
  %69 = load ptr, ptr %13, align 8, !tbaa !86
  %70 = load i32, ptr %15, align 4, !tbaa !36
  call void @unum_setAttribute_77(ptr noundef %69, i32 noundef 4, i32 noundef %70)
  br label %71

71:                                               ; preds = %68, %65
  %72 = load ptr, ptr %7, align 8, !tbaa !3
  %73 = getelementptr inbounds nuw %struct.u_printf_stream_handler, ptr %72, i32 0, i32 1
  %74 = load ptr, ptr %73, align 8, !tbaa !85
  %75 = load ptr, ptr %8, align 8, !tbaa !10
  %76 = load ptr, ptr %10, align 8, !tbaa !19
  %77 = getelementptr inbounds [1024 x i16], ptr %14, i64 0, i64 0
  %78 = load i32, ptr %16, align 4, !tbaa !36
  %79 = call noundef i32 %74(ptr noundef %75, ptr noundef %76, ptr noundef %77, i32 noundef %78)
  store i32 %79, ptr %6, align 4
  store i32 1, ptr %18, align 4
  br label %80

80:                                               ; preds = %71, %43
  call void @llvm.lifetime.end.p0(i64 4, ptr %17) #9
  call void @llvm.lifetime.end.p0(i64 4, ptr %16) #9
  call void @llvm.lifetime.end.p0(i64 4, ptr %15) #9
  call void @llvm.lifetime.end.p0(i64 2048, ptr %14) #9
  call void @llvm.lifetime.end.p0(i64 8, ptr %13) #9
  call void @llvm.lifetime.end.p0(i64 8, ptr %12) #9
  %81 = load i32, ptr %6, align 4
  ret i32 %81
}