; Function Attrs: mustprogress uwtable
define internal noundef i32 @_ZL25u_printf_uinteger_handlerPK23u_printf_stream_handlerPvP13ULocaleBundlePK18u_printf_spec_infoPK9ufmt_args(ptr noundef readonly captures(none) %0, ptr noundef %1, ptr noundef %2, ptr noundef %3, ptr noundef readonly captures(none) %4) #0 {
  %6 = alloca [1024 x i16], align 16
  %7 = alloca i32, align 4
  %8 = load i64, ptr %4, align 8, !tbaa !20
  call void @llvm.lifetime.start.p0(i64 2048, ptr nonnull %6) #9
  call void @llvm.lifetime.start.p0(i64 4, ptr nonnull %7) #9
  store i32 0, ptr %7, align 4, !tbaa !65
  %9 = getelementptr inbounds nuw i8, ptr %3, i64 20
  %10 = load i8, ptr %9, align 4, !tbaa !56
  %.not = icmp eq i8 %10, 0
  br i1 %.not, label %13, label %11

11:                                               ; preds = %5
  %12 = and i64 %8, 65535
  br label %17

13:                                               ; preds = %5
  %14 = getelementptr inbounds nuw i8, ptr %3, i64 22
  %15 = load i8, ptr %14, align 2, !tbaa !57
  %.not24 = icmp eq i8 %15, 0
  %16 = and i64 %8, 4294967295
  %spec.select = select i1 %.not24, i64 %16, i64 %8
  br label %17

17:                                               ; preds = %13, %11
  %.022 = phi i64 [ %12, %11 ], [ %spec.select, %13 ]
  %18 = tail call ptr @u_locbund_getNumberFormat_77(ptr noundef %2, i32 noundef 1)
  %19 = icmp eq ptr %18, null
  br i1 %19, label %33, label %20

20:                                               ; preds = %17
  %21 = load i32, ptr %3, align 4, !tbaa !42
  %.not25 = icmp eq i32 %21, -1
  br i1 %.not25, label %25, label %22

22:                                               ; preds = %20
  %23 = tail call i32 @unum_getAttribute_77(ptr noundef nonnull %18, i32 noundef 4)
  %24 = load i32, ptr %3, align 4, !tbaa !42
  tail call void @unum_setAttribute_77(ptr noundef nonnull %18, i32 noundef 4, i32 noundef %24)
  br label %25

25:                                               ; preds = %22, %20
  %.020 = phi i32 [ %23, %22 ], [ -1, %20 ]
  %26 = call i32 @unum_formatInt64_77(ptr noundef nonnull %18, i64 noundef %.022, ptr noundef nonnull %6, i32 noundef 1024, ptr noundef null, ptr noundef nonnull %7)
  %27 = load i32, ptr %7, align 4, !tbaa !65
  %.inv = icmp sgt i32 %27, 0
  %spec.select28 = select i1 %.inv, i32 0, i32 %26
  %.not27 = icmp eq i32 %.020, -1
  br i1 %.not27, label %29, label %28

28:                                               ; preds = %25
  call void @unum_setAttribute_77(ptr noundef nonnull %18, i32 noundef 4, i32 noundef %.020)
  br label %29

29:                                               ; preds = %28, %25
  %30 = getelementptr inbounds nuw i8, ptr %0, i64 8
  %31 = load ptr, ptr %30, align 8, !tbaa !64
  %32 = call noundef i32 %31(ptr noundef %1, ptr noundef nonnull %3, ptr noundef nonnull %6, i32 noundef %spec.select28)
  br label %33

33:                                               ; preds = %17, %29
  %.021 = phi i32 [ %32, %29 ], [ 0, %17 ]
  call void @llvm.lifetime.end.p0(i64 4, ptr nonnull %7) #9
  call void @llvm.lifetime.end.p0(i64 2048, ptr nonnull %6) #9
  ret i32 %.021
}